target datalayout = "e-m:e-p270:32:32-p271:32:32-p272:64:64-i64:64-i128:128-f80:128-n8:16:32:64-S128"
target triple = "x86_64-pc-linux-gnu"

%struct.ossl_param_st = type { ptr, i32, ptr, i64, i64 }

@.str.8 = private unnamed_addr constant [16 x i8] c"encoded-pub-key\00", align 1
@.str.12 = private unnamed_addr constant [26 x i8] c"set params called for %p\0A\00", align 1
@.str.13 = private unnamed_addr constant [15 x i8] c"set params OK\0A\00", align 1

; Function Attrs: inlinehint nounwind uwtable
define internal i32 @ossl_param_is_empty(ptr noundef %0) #3 {
  %2 = alloca ptr, align 8
  store ptr %0, ptr %2, align 8, !tbaa !7
  %3 = load ptr, ptr %2, align 8, !tbaa !7
  %4 = icmp eq ptr %3, null
  br i1 %4, label %10, label %5

5:                                                ; preds = %1
  %6 = load ptr, ptr %2, align 8, !tbaa !7
  %7 = getelementptr inbounds nuw %struct.ossl_param_st, ptr %6, i32 0, i32 0
  %8 = load ptr, ptr %7, align 8, !tbaa !20
  %9 = icmp eq ptr %8, null
  br label %10

10:                                               ; preds = %5, %1
  %11 = phi i1 [ true, %1 ], [ %9, %5 ]
  %12 = zext i1 %11 to i32
  ret i32 %12
}

; Function Attrs: nounwind uwtable
define internal void @debug_print(ptr noundef %0, ...) #0 {
  %2 = alloca ptr, align 8
  store ptr %0, ptr %2, align 8, !tbaa !18
  ret void
}

; Function Attrs: nounwind uwtable
define internal i32 @template_set_params(ptr noundef %0, ptr noundef %1) #0 {
  %3 = alloca i32, align 4
  %4 = alloca ptr, align 8
  %5 = alloca ptr, align 8
  %6 = alloca ptr, align 8
  %7 = alloca i32, align 4
  store ptr %0, ptr %4, align 8, !tbaa !3
  store ptr %1, ptr %5, align 8, !tbaa !7
  call void @llvm.lifetime.start.p0(i64 8, ptr %6) #4
  %8 = load ptr, ptr %4, align 8, !tbaa !3
  call void (ptr, ...) @debug_print(ptr noundef @.str.12, ptr noundef %8)
  %9 = load ptr, ptr %5, align 8, !tbaa !7
  %10 = call i32 @ossl_param_is_empty(ptr noundef %9)
  %11 = icmp ne i32 %10, 0
  br i1 %11, label %12, label %13

12:                                               ; preds = %2
  store i32 1, ptr %3, align 4
  store i32 1, ptr %7, align 4
  br label %20

13:                                               ; preds = %2
  %14 = load ptr, ptr %5, align 8, !tbaa !7
  %15 = call ptr @OSSL_PARAM_locate_const(ptr noundef %14, ptr noundef @.str.8)
  store ptr %15, ptr %6, align 8, !tbaa !7
  %16 = load ptr, ptr %6, align 8, !tbaa !7
  %17 = icmp ne ptr %16, null
  br i1 %17, label %18, label %19

18:                                               ; preds = %13
  br label %19

19:                                               ; preds = %18, %13
  call void (ptr, ...) @debug_print(ptr noundef @.str.13)
  store i32 1, ptr %3, align 4
  store i32 1, ptr %7, align 4
  br label %20

20:                                               ; preds = %19, %12
  call void @llvm.lifetime.end.p0(i64 8, ptr %6) #4
  %21 = load i32, ptr %3, align 4
  ret i32 %21
}